target datalayout = "e-m:e-p270:32:32-p271:32:32-p272:64:64-i64:64-i128:128-f80:128-n8:16:32:64-S128"
target triple = "x86_64-pc-linux-gnu"

%union.pthread_mutex_t = type { %struct.__pthread_mutex_s }
%struct.__pthread_mutex_s = type { i32, i32, i32, i32, i32, i16, i16, %struct.__pthread_internal_list }
%struct.__pthread_internal_list = type { ptr, ptr }
%struct.tMPI_Thread_mutex_t = type { %struct.tMPI_Atomic, ptr }
%struct.tMPI_Atomic = type { i32, [60 x i8] }
%struct.tMPI_Mutex = type { %union.pthread_mutex_t }

; Function Attrs: mustprogress nounwind uwtable
define noundef i32 @_Z25tMPI_Thread_mutex_destroyP19tMPI_Thread_mutex_t(ptr noundef %0) #0 {
  %2 = alloca i32, align 4
  %3 = alloca ptr, align 8
  %4 = alloca i32, align 4
  store ptr %0, ptr %3, align 8
  %5 = load ptr, ptr %3, align 8
  %6 = icmp eq ptr %5, null
  br i1 %6, label %7, label %8

7:                                                ; preds = %1
  store i32 22, ptr %2, align 4
  br label %23

8:                                                ; preds = %1
  %9 = load ptr, ptr %3, align 8
  %10 = getelementptr inbounds %struct.tMPI_Thread_mutex_t, ptr %9, i32 0, i32 1
  %11 = load ptr, ptr %10, align 8
  %12 = getelementptr inbounds %struct.tMPI_Mutex, ptr %11, i32 0, i32 0
  %13 = call i32 @pthread_mutex_destroy(ptr noundef %12) #8
  store i32 %13, ptr %4, align 4
  %14 = load i32, ptr %4, align 4
  %15 = icmp ne i32 %14, 0
  br i1 %15, label %16, label %18

16:                                               ; preds = %8
  %17 = load i32, ptr %4, align 4
  store i32 %17, ptr %2, align 4
  br label %23

18:                                               ; preds = %8
  %19 = load ptr, ptr %3, align 8
  %20 = getelementptr inbounds %struct.tMPI_Thread_mutex_t, ptr %19, i32 0, i32 1
  %21 = load ptr, ptr %20, align 8
  call void @free(ptr noundef %21) #8
  %22 = load i32, ptr %4, align 4
  store i32 %22, ptr %2, align 4
  br label %23

23:                                               ; preds = %18, %16, %7
  %24 = load i32, ptr %2, align 4
  ret i32 %24
}